; ModuleID = '44/1313.c'
source_filename = "44/1313.c"
target datalayout = "e-m:e-p270:32:32-p271:32:32-p272:64:64-i64:64-f80:128-n8:16:32:64-S128"
target triple = "x86_64-pc-linux-gnu"

@.str = private unnamed_addr constant [3 x i8] c"%d\00", align 1
@.str.1 = private unnamed_addr constant [4 x i8] c"%d\0A\00", align 1

; Function Attrs: noinline nounwind uwtable
define dso_local i32 @main() #0 {
  %1 = alloca i32, align 4
  %2 = alloca i32, align 4
  %3 = alloca i32, align 4
  %4 = alloca i32, align 4
  store i32 0, i32* %1, align 4
  store i32 0, i32* %2, align 4
  br label %5

5:                                                ; preds = %14, %0
  %6 = load i32, i32* %2, align 4
  %7 = icmp slt i32 %6, 6
  br i1 %7, label %8, label %17

8:                                                ; preds = %5
  %9 = call i32 (i8*, ...) @__isoc99_scanf(i8* getelementptr inbounds ([3 x i8], [3 x i8]* @.str, i64 0, i64 0), i32* %3)
  %10 = load i32, i32* %3, align 4
  %11 = call i32 @reverse(i32 %10)
  store i32 %11, i32* %4, align 4
  %12 = load i32, i32* %4, align 4
  %13 = call i32 (i8*, ...) @printf(i8* getelementptr inbounds ([4 x i8], [4 x i8]* @.str.1, i64 0, i64 0), i32 %12)
  br label %14

14:                                               ; preds = %8
  %15 = load i32, i32* %2, align 4
  %16 = add nsw i32 %15, 1
  store i32 %16, i32* %2, align 4
  br label %5

17:                                               ; preds = %5
  ret i32 0
}

declare dso_local i32 @__isoc99_scanf(i8*, ...) #1

; Function Attrs: noinline nounwind uwtable
define dso_local i32 @reverse(i32 %0) #0 {
  %2 = alloca i32, align 4
  %3 = alloca i32, align 4
  %4 = alloca i32, align 4
  %5 = alloca i32, align 4
  %6 = alloca i32, align 4
  store i32 %0, i32* %2, align 4
  store i32 0, i32* %3, align 4
  %7 = load i32, i32* %2, align 4
  %8 = icmp sge i32 %7, 0
  br i1 %8, label %9, label %30

9:                                                ; preds = %1
  store i32 0, i32* %5, align 4
  br label %10

10:                                               ; preds = %26, %9
  %11 = load i32, i32* %5, align 4
  %12 = icmp slt i32 %11, 10
  br i1 %12, label %13, label %29

13:                                               ; preds = %10
  %14 = load i32, i32* %2, align 4
  %15 = srem i32 %14, 10
  store i32 %15, i32* %4, align 4
  %16 = load i32, i32* %2, align 4
  %17 = sdiv i32 %16, 10
  store i32 %17, i32* %2, align 4
  %18 = load i32, i32* %3, align 4
  %19 = mul nsw i32 %18, 10
  %20 = load i32, i32* %4, align 4
  %21 = add nsw i32 %19, %20
  store i32 %21, i32* %3, align 4
  %22 = load i32, i32* %2, align 4
  %23 = icmp eq i32 %22, 0
  br i1 %23, label %24, label %25

24:                                               ; preds = %13
  br label %29

25:                                               ; preds = %13
  br label %26

26:                                               ; preds = %25
  %27 = load i32, i32* %5, align 4
  %28 = add nsw i32 %27, 1
  store i32 %28, i32* %5, align 4
  br label %10

29:                                               ; preds = %24, %10
  br label %55

30:                                               ; preds = %1
  %31 = load i32, i32* %2, align 4
  %32 = sub nsw i32 0, %31
  store i32 %32, i32* %2, align 4
  store i32 0, i32* %6, align 4
  br label %33

33:                                               ; preds = %49, %30
  %34 = load i32, i32* %6, align 4
  %35 = icmp slt i32 %34, 32
  br i1 %35, label %36, label %52

36:                                               ; preds = %33
  %37 = load i32, i32* %2, align 4
  %38 = srem i32 %37, 10
  store i32 %38, i32* %4, align 4
  %39 = load i32, i32* %2, align 4
  %40 = sdiv i32 %39, 10
  store i32 %40, i32* %2, align 4
  %41 = load i32, i32* %3, align 4
  %42 = mul nsw i32 %41, 10
  %43 = load i32, i32* %4, align 4
  %44 = add nsw i32 %42, %43
  store i32 %44, i32* %3, align 4
  %45 = load i32, i32* %2, align 4
  %46 = icmp eq i32 %45, 0
  br i1 %46, label %47, label %48

47:                                               ; preds = %36
  br label %52

48:                                               ; preds = %36
  br label %49

49:                                               ; preds = %48
  %50 = load i32, i32* %6, align 4
  %51 = add nsw i32 %50, 1
  store i32 %51, i32* %6, align 4
  br label %33

52:                                               ; preds = %47, %33
  %53 = load i32, i32* %3, align 4
  %54 = sub nsw i32 0, %53
  store i32 %54, i32* %3, align 4
  br label %55

55:                                               ; preds = %52, %29
  %56 = load i32, i32* %3, align 4
  ret i32 %56
}

declare dso_local i32 @printf(i8*, ...) #1


!llvm.module.flags = !{!0}
!llvm.ident = !{!1}

!0 = !{i32 1, !"wchar_size", i32 4}
!1 = !{!"clang version 10.0.0-4ubuntu1 "}
